target datalayout = "e-m:e-p270:32:32-p271:32:32-p272:64:64-i64:64-i128:128-f80:128-n8:16:32:64-S128"
target triple = "x86_64-pc-linux-gnu"

%struct.COMPLEX = type { double, double }
%struct.PJconsts = type { ptr, ptr, ptr, ptr, ptr, ptr, ptr, ptr, ptr, ptr, ptr, ptr, i32, ptr, ptr, ptr, ptr, ptr, ptr, ptr, ptr, double, double, double, double, double, double, double, double, double, double, double, double, double, double, double, double, double, double, double, double, double, double, i32, i32, i32, i32, i32, i32, i32, i32, i32, i32, i32, ptr, ptr, ptr, ptr, ptr, ptr, double, double, double, double, double, double, double, double, double, double, double, i32, [7 x double], i32, ptr, ptr, double, double, i32, [4 x i8], %"class.std::shared_ptr", i8, double, i8, %"class.std::__cxx11::basic_string", %"class.std::__cxx11::basic_string", %"class.std::__cxx11::basic_string", i8, %"class.std::vector", i32, %"class.std::vector.3", i32, i8, i8, i8, ptr }
%"class.std::shared_ptr" = type { %"class.std::__shared_ptr" }
%"class.std::__shared_ptr" = type { ptr, %"class.std::__shared_count" }
%"class.std::__shared_count" = type { ptr }
%"class.std::__cxx11::basic_string" = type { %"struct.std::__cxx11::basic_string<char>::_Alloc_hider", i64, %union.anon }
%"struct.std::__cxx11::basic_string<char>::_Alloc_hider" = type { ptr }
%union.anon = type { i64, [8 x i8] }
%"class.std::vector" = type { %"struct.std::_Vector_base" }
%"struct.std::_Vector_base" = type { %"struct.std::_Vector_base<osgeo::proj::operation::GridDescription, std::allocator<osgeo::proj::operation::GridDescription>>::_Vector_impl" }
%"struct.std::_Vector_base<osgeo::proj::operation::GridDescription, std::allocator<osgeo::proj::operation::GridDescription>>::_Vector_impl" = type { %"struct.std::_Vector_base<osgeo::proj::operation::GridDescription, std::allocator<osgeo::proj::operation::GridDescription>>::_Vector_impl_data" }
%"struct.std::_Vector_base<osgeo::proj::operation::GridDescription, std::allocator<osgeo::proj::operation::GridDescription>>::_Vector_impl_data" = type { ptr, ptr, ptr }
%"class.std::vector.3" = type { %"struct.std::_Vector_base.4" }
%"struct.std::_Vector_base.4" = type { %"struct.std::_Vector_base<PJCoordOperation, std::allocator<PJCoordOperation>>::_Vector_impl" }
%"struct.std::_Vector_base<PJCoordOperation, std::allocator<PJCoordOperation>>::_Vector_impl" = type { %"struct.std::_Vector_base<PJCoordOperation, std::allocator<PJCoordOperation>>::_Vector_impl_data" }
%"struct.std::_Vector_base<PJCoordOperation, std::allocator<PJCoordOperation>>::_Vector_impl_data" = type { ptr, ptr, ptr }
%"struct.(anonymous namespace)::pj_mod_ster_data" = type { ptr, double, double, i32 }

@_ZZ35pj_projection_specific_setup_lee_osP8PJconstsE2AB = internal constant [3 x %struct.COMPLEX] [%struct.COMPLEX { double 7.213160e-01, double 0.000000e+00 }, %struct.COMPLEX zeroinitializer, %struct.COMPLEX { double -8.816200e-03, double -6.173250e-03 }], align 16

; Function Attrs: mustprogress nounwind uwtable
define internal noundef ptr @_ZL14mod_ster_setupP8PJconsts(ptr noundef %0) #4 {
  %2 = alloca ptr, align 8
  %3 = alloca ptr, align 8
  %4 = alloca double, align 8
  %5 = alloca double, align 8
  store ptr %0, ptr %2, align 8, !tbaa !3
  call void @llvm.lifetime.start.p0(i64 8, ptr %3) #9
  %6 = load ptr, ptr %2, align 8, !tbaa !3
  %7 = getelementptr inbounds nuw %struct.PJconsts, ptr %6, i32 0, i32 11
  %8 = load ptr, ptr %7, align 8, !tbaa !43
  store ptr %8, ptr %3, align 8, !tbaa !41
  call void @llvm.lifetime.start.p0(i64 8, ptr %4) #9
  call void @llvm.lifetime.start.p0(i64 8, ptr %5) #9
  %9 = load ptr, ptr %2, align 8, !tbaa !3
  %10 = getelementptr inbounds nuw %struct.PJconsts, ptr %9, i32 0, i32 27
  %11 = load double, ptr %10, align 8, !tbaa !49
  %12 = fcmp une double %11, 0.000000e+00
  br i1 %12, label %13, label %41

13:                                               ; preds = %1
  %14 = load ptr, ptr %2, align 8, !tbaa !3
  %15 = getelementptr inbounds nuw %struct.PJconsts, ptr %14, i32 0, i32 26
  %16 = load double, ptr %15, align 8, !tbaa !50
  %17 = load ptr, ptr %2, align 8, !tbaa !3
  %18 = getelementptr inbounds nuw %struct.PJconsts, ptr %17, i32 0, i32 61
  %19 = load double, ptr %18, align 8, !tbaa !47
  %20 = call double @sin(double noundef %19) #9, !tbaa !51
  %21 = fmul double %16, %20
  store double %21, ptr %4, align 8, !tbaa !52
  %22 = load ptr, ptr %2, align 8, !tbaa !3
  %23 = getelementptr inbounds nuw %struct.PJconsts, ptr %22, i32 0, i32 61
  %24 = load double, ptr %23, align 8, !tbaa !47
  %25 = fadd double 0x3FF921FB54442D18, %24
  %26 = fmul double %25, 5.000000e-01
  %27 = call double @tan(double noundef %26) #9, !tbaa !51
  %28 = load double, ptr %4, align 8, !tbaa !52
  %29 = fsub double 1.000000e+00, %28
  %30 = load double, ptr %4, align 8, !tbaa !52
  %31 = fadd double 1.000000e+00, %30
  %32 = fdiv double %29, %31
  %33 = load ptr, ptr %2, align 8, !tbaa !3
  %34 = getelementptr inbounds nuw %struct.PJconsts, ptr %33, i32 0, i32 26
  %35 = load double, ptr %34, align 8, !tbaa !50
  %36 = fmul double %35, 5.000000e-01
  %37 = call double @pow(double noundef %32, double noundef %36) #9, !tbaa !51
  %38 = fmul double %27, %37
  %39 = call double @atan(double noundef %38) #9, !tbaa !51
  %40 = call double @llvm.fmuladd.f64(double 2.000000e+00, double %39, double 0xBFF921FB54442D18)
  store double %40, ptr %5, align 8, !tbaa !52
  br label %45

41:                                               ; preds = %1
  %42 = load ptr, ptr %2, align 8, !tbaa !3
  %43 = getelementptr inbounds nuw %struct.PJconsts, ptr %42, i32 0, i32 61
  %44 = load double, ptr %43, align 8, !tbaa !47
  store double %44, ptr %5, align 8, !tbaa !52
  br label %45

45:                                               ; preds = %41, %13
  %46 = load double, ptr %5, align 8, !tbaa !52
  %47 = call double @sin(double noundef %46) #9, !tbaa !51
  %48 = load ptr, ptr %3, align 8, !tbaa !41
  %49 = getelementptr inbounds nuw %"struct.(anonymous namespace)::pj_mod_ster_data", ptr %48, i32 0, i32 2
  store double %47, ptr %49, align 8, !tbaa !53
  %50 = load double, ptr %5, align 8, !tbaa !52
  %51 = call double @cos(double noundef %50) #9, !tbaa !51
  %52 = load ptr, ptr %3, align 8, !tbaa !41
  %53 = getelementptr inbounds nuw %"struct.(anonymous namespace)::pj_mod_ster_data", ptr %52, i32 0, i32 1
  store double %51, ptr %53, align 8, !tbaa !54
  %54 = load ptr, ptr %2, align 8, !tbaa !3
  %55 = getelementptr inbounds nuw %struct.PJconsts, ptr %54, i32 0, i32 14
  store ptr @_ZL18mod_ster_e_inverse5PJ_XYP8PJconsts, ptr %55, align 8, !tbaa !55
  %56 = load ptr, ptr %2, align 8, !tbaa !3
  %57 = getelementptr inbounds nuw %struct.PJconsts, ptr %56, i32 0, i32 13
  store ptr @_ZL18mod_ster_e_forward5PJ_LPP8PJconsts, ptr %57, align 8, !tbaa !56
  %58 = load ptr, ptr %2, align 8, !tbaa !3
  call void @llvm.lifetime.end.p0(i64 8, ptr %5) #9
  call void @llvm.lifetime.end.p0(i64 8, ptr %4) #9
  call void @llvm.lifetime.end.p0(i64 8, ptr %3) #9
  ret ptr %58
}

; Function Attrs: mustprogress uwtable
define hidden noundef ptr @_Z35pj_projection_specific_setup_lee_osP8PJconsts(ptr noundef %0) #0 {
  %2 = alloca ptr, align 8
  %3 = alloca ptr, align 8
  %4 = alloca ptr, align 8
  %5 = alloca i32, align 4
  store ptr %0, ptr %3, align 8, !tbaa !3
  call void @llvm.lifetime.start.p0(i64 8, ptr %4) #9
  %6 = call noalias ptr @calloc(i64 noundef 1, i64 noundef 32) #10
  store ptr %6, ptr %4, align 8, !tbaa !41
  %7 = load ptr, ptr %4, align 8, !tbaa !41
  %8 = icmp eq ptr null, %7
  br i1 %8, label %9, label %12

9:                                                ; preds = %1
  %10 = load ptr, ptr %3, align 8, !tbaa !3
  %11 = call noundef ptr @_Z21pj_default_destructorP8PJconstsi(ptr noundef %10, i32 noundef 4096)
  store ptr %11, ptr %2, align 8
  store i32 1, ptr %5, align 4
  br label %28

12:                                               ; preds = %1
  %13 = load ptr, ptr %4, align 8, !tbaa !41
  %14 = load ptr, ptr %3, align 8, !tbaa !3
  %15 = getelementptr inbounds nuw %struct.PJconsts, ptr %14, i32 0, i32 11
  store ptr %13, ptr %15, align 8, !tbaa !43
  %16 = load ptr, ptr %4, align 8, !tbaa !41
  %17 = getelementptr inbounds nuw %"struct.(anonymous namespace)::pj_mod_ster_data", ptr %16, i32 0, i32 3
  store i32 2, ptr %17, align 8, !tbaa !44
  %18 = load ptr, ptr %3, align 8, !tbaa !3
  %19 = getelementptr inbounds nuw %struct.PJconsts, ptr %18, i32 0, i32 60
  store double 0xC00709D10D3E7EAB, ptr %19, align 8, !tbaa !46
  %20 = load ptr, ptr %3, align 8, !tbaa !3
  %21 = getelementptr inbounds nuw %struct.PJconsts, ptr %20, i32 0, i32 61
  store double 0xBFC657184AE74487, ptr %21, align 8, !tbaa !47
  %22 = load ptr, ptr %4, align 8, !tbaa !41
  %23 = getelementptr inbounds nuw %"struct.(anonymous namespace)::pj_mod_ster_data", ptr %22, i32 0, i32 0
  store ptr @_ZZ35pj_projection_specific_setup_lee_osP8PJconstsE2AB, ptr %23, align 8, !tbaa !48
  %24 = load ptr, ptr %3, align 8, !tbaa !3
  %25 = getelementptr inbounds nuw %struct.PJconsts, ptr %24, i32 0, i32 27
  store double 0.000000e+00, ptr %25, align 8, !tbaa !49
  %26 = load ptr, ptr %3, align 8, !tbaa !3
  %27 = call noundef ptr @_ZL14mod_ster_setupP8PJconsts(ptr noundef %26)
  store ptr %27, ptr %2, align 8
  store i32 1, ptr %5, align 4
  br label %28

28:                                               ; preds = %12, %9
  call void @llvm.lifetime.end.p0(i64 8, ptr %4) #9
  %29 = load ptr, ptr %2, align 8
  ret ptr %29
}