; Function Attrs: mustprogress uwtable
define hidden noundef ptr @_Z35pj_projection_specific_setup_lee_osP8PJconsts(ptr noundef %0) local_unnamed_addr #0 {
  %2 = tail call noalias dereferenceable_or_null(32) ptr @calloc(i64 noundef 1, i64 noundef 32) #6
  %3 = icmp eq ptr %2, null
  br i1 %3, label %4, label %_ZL14mod_ster_setupP8PJconsts.exit

4:                                                ; preds = %1
  %5 = tail call noundef ptr @_Z21pj_default_destructorP8PJconstsi(ptr noundef %0, i32 noundef 4096)
  br label %15

_ZL14mod_ster_setupP8PJconsts.exit:               ; preds = %1
  %6 = getelementptr inbounds nuw i8, ptr %0, i64 88
  store ptr %2, ptr %6, align 8, !tbaa !3
  %7 = getelementptr inbounds nuw i8, ptr %2, i64 24
  store i32 2, ptr %7, align 8, !tbaa !36
  %8 = getelementptr inbounds nuw i8, ptr %0, i64 440
  store double 0xC00709D10D3E7EAB, ptr %8, align 8, !tbaa !38
  %9 = getelementptr inbounds nuw i8, ptr %0, i64 448
  store double 0xBFC657184AE74487, ptr %9, align 8, !tbaa !39
  store ptr @_ZZ35pj_projection_specific_setup_lee_osP8PJconstsE2AB, ptr %2, align 8, !tbaa !40
  %10 = getelementptr inbounds nuw i8, ptr %0, i64 216
  store double 0.000000e+00, ptr %10, align 8, !tbaa !41
  %11 = getelementptr inbounds nuw i8, ptr %2, i64 16
  store double 0xBFC63A1A7E0B7389, ptr %11, align 8, !tbaa !42
  %12 = getelementptr inbounds nuw i8, ptr %2, i64 8
  store double 0x3FEF838B8C811C17, ptr %12, align 8, !tbaa !43
  %13 = getelementptr inbounds nuw i8, ptr %0, i64 112
  store ptr @_ZL18mod_ster_e_inverse5PJ_XYP8PJconsts, ptr %13, align 8, !tbaa !44
  %14 = getelementptr inbounds nuw i8, ptr %0, i64 104
  store ptr @_ZL18mod_ster_e_forward5PJ_LPP8PJconsts, ptr %14, align 8, !tbaa !45
  br label %15

15:                                               ; preds = %_ZL14mod_ster_setupP8PJconsts.exit, %4
  %.0 = phi ptr [ %5, %4 ], [ %0, %_ZL14mod_ster_setupP8PJconsts.exit ]
  ret ptr %.0
}